target datalayout = "e-m:e-p270:32:32-p271:32:32-p272:64:64-i64:64-i128:128-f80:128-n8:16:32:64-S128"
target triple = "x86_64-pc-linux-gnu"

@stderr = external global ptr, align 8
@.str.11 = private unnamed_addr constant [1 x i8] zeroinitializer, align 1
@_ZL12pkgDataFlags = internal global ptr null, align 8
@_ZL12libFileNames = internal global [4 x [256 x i8]] zeroinitializer, align 16
@.str.109 = private unnamed_addr constant [13 x i8] c"pkgdata: %s\0A\00", align 1
@.str.110 = private unnamed_addr constant [23 x i8] c"-- return status = %d\0A\00", align 1
@.str.137 = private unnamed_addr constant [40 x i8] c"Unable to allocate memory for command.\0A\00", align 1
@.str.138 = private unnamed_addr constant [14 x i8] c"%s %s %s%s %s\00", align 1
@.str.139 = private unnamed_addr constant [8 x i8] c"%s %s%s\00", align 1
@.str.140 = private unnamed_addr constant [28 x i8] c"%s %s -o %s%s %s %s%s %s %s\00", align 1
@.str.141 = private unnamed_addr constant [51 x i8] c"Error generating library file. Failed command: %s\0A\00", align 1

; Function Attrs: mustprogress uwtable
define internal noundef i32 @_ZL10runCommandPKca(ptr noundef %0, i8 noundef signext %1) #1 {
  %3 = alloca i32, align 4
  %4 = alloca ptr, align 8
  %5 = alloca i8, align 1
  %6 = alloca ptr, align 8
  %7 = alloca [4096 x i8], align 16
  %8 = alloca i32, align 4
  %9 = alloca i32, align 4
  %10 = alloca i32, align 4
  store ptr %0, ptr %4, align 8, !tbaa !18
  store i8 %1, ptr %5, align 1, !tbaa !27
  call void @llvm.lifetime.start.p0(i64 8, ptr %6) #14
  store ptr null, ptr %6, align 8, !tbaa !18
  call void @llvm.lifetime.start.p0(i64 4096, ptr %7) #14
  call void @llvm.lifetime.start.p0(i64 4, ptr %8) #14
  %11 = load ptr, ptr %4, align 8, !tbaa !18
  %12 = call i64 @strlen(ptr noundef %11) #17
  %13 = trunc i64 %12 to i32
  store i32 %13, ptr %8, align 4, !tbaa !15
  %14 = load i32, ptr %8, align 4, !tbaa !15
  %15 = icmp eq i32 %14, 0
  br i1 %15, label %16, label %17

16:                                               ; preds = %2
  store i32 0, ptr %3, align 4
  store i32 1, ptr %9, align 4
  br label %47

17:                                               ; preds = %2
  %18 = load i8, ptr %5, align 1, !tbaa !27
  %19 = icmp ne i8 %18, 0
  br i1 %19, label %21, label %20

20:                                               ; preds = %17
  br label %22

21:                                               ; preds = %17
  br label %22

22:                                               ; preds = %21, %20
  %23 = load ptr, ptr %4, align 8, !tbaa !18
  store ptr %23, ptr %6, align 8, !tbaa !18
  br label %24

24:                                               ; preds = %22
  %25 = load ptr, ptr %6, align 8, !tbaa !18
  %26 = call i32 (ptr, ...) @printf(ptr noundef @.str.109, ptr noundef %25)
  call void @llvm.lifetime.start.p0(i64 4, ptr %10) #14
  %27 = load ptr, ptr %6, align 8, !tbaa !18
  %28 = call i32 @system(ptr noundef %27)
  store i32 %28, ptr %10, align 4, !tbaa !15
  %29 = load i32, ptr %10, align 4, !tbaa !15
  %30 = icmp ne i32 %29, 0
  br i1 %30, label %31, label %35

31:                                               ; preds = %24
  %32 = load ptr, ptr @stderr, align 8, !tbaa !31
  %33 = load i32, ptr %10, align 4, !tbaa !15
  %34 = call i32 (ptr, ptr, ...) @fprintf(ptr noundef %32, ptr noundef @.str.110, i32 noundef %33) #14
  store i32 1, ptr %10, align 4, !tbaa !15
  br label %35

35:                                               ; preds = %31, %24
  %36 = load ptr, ptr %6, align 8, !tbaa !18
  %37 = getelementptr inbounds [4096 x i8], ptr %7, i64 0, i64 0
  %38 = icmp ne ptr %36, %37
  br i1 %38, label %39, label %45

39:                                               ; preds = %35
  %40 = load ptr, ptr %6, align 8, !tbaa !18
  %41 = load ptr, ptr %4, align 8, !tbaa !18
  %42 = icmp ne ptr %40, %41
  br i1 %42, label %43, label %45

43:                                               ; preds = %39
  %44 = load ptr, ptr %6, align 8, !tbaa !18
  call void @uprv_free_77(ptr noundef %44)
  br label %45

45:                                               ; preds = %43, %39, %35
  %46 = load i32, ptr %10, align 4, !tbaa !15
  store i32 %46, ptr %3, align 4
  store i32 1, ptr %9, align 4
  call void @llvm.lifetime.end.p0(i64 4, ptr %10) #14
  br label %47

47:                                               ; preds = %45, %16
  call void @llvm.lifetime.end.p0(i64 4, ptr %8) #14
  call void @llvm.lifetime.end.p0(i64 4096, ptr %7) #14
  call void @llvm.lifetime.end.p0(i64 8, ptr %6) #14
  %48 = load i32, ptr %3, align 4
  ret i32 %48
}

; Function Attrs: mustprogress uwtable
define internal noundef i32 @_ZL23pkg_generateLibraryFilePKccS0_Pca(ptr noundef %0, i8 noundef signext %1, ptr noundef %2, ptr noundef %3, i8 noundef signext %4) #1 {
  %6 = alloca i32, align 4
  %7 = alloca ptr, align 8
  %8 = alloca i8, align 1
  %9 = alloca ptr, align 8
  %10 = alloca ptr, align 8
  %11 = alloca i8, align 1
  %12 = alloca i32, align 4
  %13 = alloca ptr, align 8
  %14 = alloca i8, align 1
  %15 = alloca i32, align 4
  %16 = alloca i32, align 4
  store ptr %0, ptr %7, align 8, !tbaa !18
  store i8 %1, ptr %8, align 1, !tbaa !27
  store ptr %2, ptr %9, align 8, !tbaa !18
  store ptr %3, ptr %10, align 8, !tbaa !18
  store i8 %4, ptr %11, align 1, !tbaa !27
  call void @llvm.lifetime.start.p0(i64 4, ptr %12) #14
  store i32 0, ptr %12, align 4, !tbaa !15
  call void @llvm.lifetime.start.p0(i64 8, ptr %13) #14
  store ptr null, ptr %13, align 8, !tbaa !18
  call void @llvm.lifetime.start.p0(i64 1, ptr %14) #14
  store i8 0, ptr %14, align 1, !tbaa !27
  call void @llvm.lifetime.start.p0(i64 4, ptr %15) #14
  store i32 0, ptr %15, align 4, !tbaa !15
  %17 = load ptr, ptr %10, align 8, !tbaa !18
  %18 = icmp ne ptr %17, null
  br i1 %18, label %19, label %21

19:                                               ; preds = %5
  %20 = load ptr, ptr %10, align 8, !tbaa !18
  store ptr %20, ptr %13, align 8, !tbaa !18
  br label %21

21:                                               ; preds = %19, %5
  %22 = load i8, ptr %8, align 1, !tbaa !27
  %23 = sext i8 %22 to i32
  %24 = icmp eq i32 %23, 115
  br i1 %24, label %25, label %87

25:                                               ; preds = %21
  %26 = load ptr, ptr %13, align 8, !tbaa !18
  %27 = icmp eq ptr %26, null
  br i1 %27, label %28, label %62

28:                                               ; preds = %25
  %29 = load ptr, ptr @_ZL12pkgDataFlags, align 8, !tbaa !24
  %30 = getelementptr inbounds nuw ptr, ptr %29, i64 13
  %31 = load ptr, ptr %30, align 8, !tbaa !18
  %32 = call i64 @strlen(ptr noundef %31) #17
  %33 = load ptr, ptr @_ZL12pkgDataFlags, align 8, !tbaa !24
  %34 = getelementptr inbounds nuw ptr, ptr %33, i64 14
  %35 = load ptr, ptr %34, align 8, !tbaa !18
  %36 = call i64 @strlen(ptr noundef %35) #17
  %37 = add i64 %32, %36
  %38 = load ptr, ptr %7, align 8, !tbaa !18
  %39 = call i64 @strlen(ptr noundef %38) #17
  %40 = add i64 %37, %39
  %41 = call i64 @strlen(ptr noundef getelementptr inbounds nuw ([4 x [256 x i8]], ptr @_ZL12libFileNames, i64 0, i64 2)) #17
  %42 = add i64 %40, %41
  %43 = load ptr, ptr %9, align 8, !tbaa !18
  %44 = call i64 @strlen(ptr noundef %43) #17
  %45 = add i64 %42, %44
  %46 = load ptr, ptr @_ZL12pkgDataFlags, align 8, !tbaa !24
  %47 = getelementptr inbounds nuw ptr, ptr %46, i64 15
  %48 = load ptr, ptr %47, align 8, !tbaa !18
  %49 = call i64 @strlen(ptr noundef %48) #17
  %50 = add i64 %45, %49
  %51 = add i64 %50, 20
  %52 = trunc i64 %51 to i32
  store i32 %52, ptr %15, align 4, !tbaa !15
  %53 = load i32, ptr %15, align 4, !tbaa !15
  %54 = sext i32 %53 to i64
  %55 = mul i64 1, %54
  %56 = call noalias ptr @uprv_malloc_77(i64 noundef %55) #15
  store ptr %56, ptr %13, align 8, !tbaa !18
  %57 = icmp eq ptr %56, null
  br i1 %57, label %58, label %61

58:                                               ; preds = %28
  %59 = load ptr, ptr @stderr, align 8, !tbaa !31
  %60 = call i32 (ptr, ptr, ...) @fprintf(ptr noundef %59, ptr noundef @.str.137) #14
  store i32 -1, ptr %6, align 4
  store i32 1, ptr %16, align 4
  br label %189

61:                                               ; preds = %28
  store i8 1, ptr %14, align 1, !tbaa !27
  br label %62

62:                                               ; preds = %61, %25
  %63 = load ptr, ptr %13, align 8, !tbaa !18
  %64 = load ptr, ptr @_ZL12pkgDataFlags, align 8, !tbaa !24
  %65 = getelementptr inbounds nuw ptr, ptr %64, i64 13
  %66 = load ptr, ptr %65, align 8, !tbaa !18
  %67 = load ptr, ptr @_ZL12pkgDataFlags, align 8, !tbaa !24
  %68 = getelementptr inbounds nuw ptr, ptr %67, i64 14
  %69 = load ptr, ptr %68, align 8, !tbaa !18
  %70 = load ptr, ptr %7, align 8, !tbaa !18
  %71 = load ptr, ptr %9, align 8, !tbaa !18
  %72 = call i32 (ptr, ptr, ...) @sprintf(ptr noundef %63, ptr noundef @.str.138, ptr noundef %66, ptr noundef %69, ptr noundef %70, ptr noundef getelementptr inbounds nuw ([4 x [256 x i8]], ptr @_ZL12libFileNames, i64 0, i64 2), ptr noundef %71) #14
  %73 = load ptr, ptr %13, align 8, !tbaa !18
  %74 = call noundef i32 @_ZL10runCommandPKca(ptr noundef %73, i8 noundef signext 0)
  store i32 %74, ptr %12, align 4, !tbaa !15
  %75 = load i32, ptr %12, align 4, !tbaa !15
  %76 = icmp eq i32 %75, 0
  br i1 %76, label %77, label %86

77:                                               ; preds = %62
  %78 = load ptr, ptr %13, align 8, !tbaa !18
  %79 = load ptr, ptr @_ZL12pkgDataFlags, align 8, !tbaa !24
  %80 = getelementptr inbounds nuw ptr, ptr %79, i64 15
  %81 = load ptr, ptr %80, align 8, !tbaa !18
  %82 = load ptr, ptr %7, align 8, !tbaa !18
  %83 = call i32 (ptr, ptr, ...) @sprintf(ptr noundef %78, ptr noundef @.str.139, ptr noundef %81, ptr noundef %82, ptr noundef getelementptr inbounds nuw ([4 x [256 x i8]], ptr @_ZL12libFileNames, i64 0, i64 2)) #14
  %84 = load ptr, ptr %13, align 8, !tbaa !18
  %85 = call noundef i32 @_ZL10runCommandPKca(ptr noundef %84, i8 noundef signext 0)
  store i32 %85, ptr %12, align 4, !tbaa !15
  br label %86

86:                                               ; preds = %77, %62
  br label %175

87:                                               ; preds = %21
  %88 = load ptr, ptr %13, align 8, !tbaa !18
  %89 = icmp eq ptr %88, null
  br i1 %89, label %90, label %145

90:                                               ; preds = %87
  %91 = load ptr, ptr @_ZL12pkgDataFlags, align 8, !tbaa !24
  %92 = getelementptr inbounds nuw ptr, ptr %91, i64 8
  %93 = load ptr, ptr %92, align 8, !tbaa !18
  %94 = call i64 @strlen(ptr noundef %93) #17
  %95 = load ptr, ptr @_ZL12pkgDataFlags, align 8, !tbaa !24
  %96 = getelementptr inbounds nuw ptr, ptr %95, i64 9
  %97 = load ptr, ptr %96, align 8, !tbaa !18
  %98 = call i64 @strlen(ptr noundef %97) #17
  %99 = add i64 %94, %98
  %100 = load ptr, ptr %7, align 8, !tbaa !18
  %101 = call i64 @strlen(ptr noundef %100) #17
  %102 = call i64 @strlen(ptr noundef getelementptr inbounds nuw ([4 x [256 x i8]], ptr @_ZL12libFileNames, i64 0, i64 3)) #17
  %103 = add i64 %101, %102
  %104 = mul i64 %103, 2
  %105 = add i64 %99, %104
  %106 = load ptr, ptr %9, align 8, !tbaa !18
  %107 = call i64 @strlen(ptr noundef %106) #17
  %108 = add i64 %105, %107
  %109 = load ptr, ptr @_ZL12pkgDataFlags, align 8, !tbaa !24
  %110 = getelementptr inbounds nuw ptr, ptr %109, i64 10
  %111 = load ptr, ptr %110, align 8, !tbaa !18
  %112 = call i64 @strlen(ptr noundef %111) #17
  %113 = add i64 %108, %112
  %114 = load ptr, ptr @_ZL12pkgDataFlags, align 8, !tbaa !24
  %115 = getelementptr inbounds nuw ptr, ptr %114, i64 10
  %116 = load ptr, ptr %115, align 8, !tbaa !18
  %117 = getelementptr inbounds i8, ptr %116, i64 0
  %118 = load i8, ptr %117, align 1, !tbaa !27
  %119 = sext i8 %118 to i32
  %120 = icmp eq i32 %119, 0
  %121 = select i1 %120, ptr @.str.11, ptr getelementptr inbounds nuw ([4 x [256 x i8]], ptr @_ZL12libFileNames, i64 0, i64 1)
  %122 = call i64 @strlen(ptr noundef %121) #17
  %123 = add i64 %113, %122
  %124 = load ptr, ptr @_ZL12pkgDataFlags, align 8, !tbaa !24
  %125 = getelementptr inbounds nuw ptr, ptr %124, i64 11
  %126 = load ptr, ptr %125, align 8, !tbaa !18
  %127 = call i64 @strlen(ptr noundef %126) #17
  %128 = add i64 %123, %127
  %129 = load ptr, ptr @_ZL12pkgDataFlags, align 8, !tbaa !24
  %130 = getelementptr inbounds nuw ptr, ptr %129, i64 12
  %131 = load ptr, ptr %130, align 8, !tbaa !18
  %132 = call i64 @strlen(ptr noundef %131) #17
  %133 = add i64 %128, %132
  %134 = add i64 %133, 20
  %135 = trunc i64 %134 to i32
  store i32 %135, ptr %15, align 4, !tbaa !15
  %136 = load i32, ptr %15, align 4, !tbaa !15
  %137 = sext i32 %136 to i64
  %138 = mul i64 1, %137
  %139 = call noalias ptr @uprv_malloc_77(i64 noundef %138) #15
  store ptr %139, ptr %13, align 8, !tbaa !18
  %140 = icmp eq ptr %139, null
  br i1 %140, label %141, label %144

141:                                              ; preds = %90
  %142 = load ptr, ptr @stderr, align 8, !tbaa !31
  %143 = call i32 (ptr, ptr, ...) @fprintf(ptr noundef %142, ptr noundef @.str.137) #14
  store i32 -1, ptr %6, align 4
  store i32 1, ptr %16, align 4
  br label %189

144:                                              ; preds = %90
  store i8 1, ptr %14, align 1, !tbaa !27
  br label %145

145:                                              ; preds = %144, %87
  %146 = load ptr, ptr %13, align 8, !tbaa !18
  %147 = load ptr, ptr @_ZL12pkgDataFlags, align 8, !tbaa !24
  %148 = getelementptr inbounds nuw ptr, ptr %147, i64 8
  %149 = load ptr, ptr %148, align 8, !tbaa !18
  %150 = load ptr, ptr @_ZL12pkgDataFlags, align 8, !tbaa !24
  %151 = getelementptr inbounds nuw ptr, ptr %150, i64 9
  %152 = load ptr, ptr %151, align 8, !tbaa !18
  %153 = load ptr, ptr %7, align 8, !tbaa !18
  %154 = load ptr, ptr %9, align 8, !tbaa !18
  %155 = load ptr, ptr @_ZL12pkgDataFlags, align 8, !tbaa !24
  %156 = getelementptr inbounds nuw ptr, ptr %155, i64 10
  %157 = load ptr, ptr %156, align 8, !tbaa !18
  %158 = load ptr, ptr @_ZL12pkgDataFlags, align 8, !tbaa !24
  %159 = getelementptr inbounds nuw ptr, ptr %158, i64 10
  %160 = load ptr, ptr %159, align 8, !tbaa !18
  %161 = getelementptr inbounds i8, ptr %160, i64 0
  %162 = load i8, ptr %161, align 1, !tbaa !27
  %163 = sext i8 %162 to i32
  %164 = icmp eq i32 %163, 0
  %165 = select i1 %164, ptr @.str.11, ptr getelementptr inbounds nuw ([4 x [256 x i8]], ptr @_ZL12libFileNames, i64 0, i64 1)
  %166 = load ptr, ptr @_ZL12pkgDataFlags, align 8, !tbaa !24
  %167 = getelementptr inbounds nuw ptr, ptr %166, i64 11
  %168 = load ptr, ptr %167, align 8, !tbaa !18
  %169 = load ptr, ptr @_ZL12pkgDataFlags, align 8, !tbaa !24
  %170 = getelementptr inbounds nuw ptr, ptr %169, i64 12
  %171 = load ptr, ptr %170, align 8, !tbaa !18
  %172 = call i32 (ptr, ptr, ...) @sprintf(ptr noundef %146, ptr noundef @.str.140, ptr noundef %149, ptr noundef %152, ptr noundef %153, ptr noundef getelementptr inbounds nuw ([4 x [256 x i8]], ptr @_ZL12libFileNames, i64 0, i64 3), ptr noundef %154, ptr noundef %157, ptr noundef %165, ptr noundef %168, ptr noundef %171) #14
  %173 = load ptr, ptr %13, align 8, !tbaa !18
  %174 = call noundef i32 @_ZL10runCommandPKca(ptr noundef %173, i8 noundef signext 0)
  store i32 %174, ptr %12, align 4, !tbaa !15
  br label %175

175:                                              ; preds = %145, %86
  %176 = load i32, ptr %12, align 4, !tbaa !15
  %177 = icmp ne i32 %176, 0
  br i1 %177, label %178, label %182

178:                                              ; preds = %175
  %179 = load ptr, ptr @stderr, align 8, !tbaa !31
  %180 = load ptr, ptr %13, align 8, !tbaa !18
  %181 = call i32 (ptr, ptr, ...) @fprintf(ptr noundef %179, ptr noundef @.str.141, ptr noundef %180) #14
  br label %182

182:                                              ; preds = %178, %175
  %183 = load i8, ptr %14, align 1, !tbaa !27
  %184 = icmp ne i8 %183, 0
  br i1 %184, label %185, label %187

185:                                              ; preds = %182
  %186 = load ptr, ptr %13, align 8, !tbaa !18
  call void @uprv_free_77(ptr noundef %186)
  br label %187

187:                                              ; preds = %185, %182
  %188 = load i32, ptr %12, align 4, !tbaa !15
  store i32 %188, ptr %6, align 4
  store i32 1, ptr %16, align 4
  br label %189

189:                                              ; preds = %187, %141, %58
  call void @llvm.lifetime.end.p0(i64 4, ptr %15) #14
  call void @llvm.lifetime.end.p0(i64 1, ptr %14) #14
  call void @llvm.lifetime.end.p0(i64 8, ptr %13) #14
  call void @llvm.lifetime.end.p0(i64 4, ptr %12) #14
  %190 = load i32, ptr %6, align 4
  ret i32 %190
}