; Function Attrs: mustprogress norecurse uwtable
define internal fastcc noundef range(i32 -1, 2) i32 @_ZL23pkg_generateLibraryFilePKccS0_Pca(ptr noundef nonnull %0, i8 noundef signext %1, ptr noundef nonnull %2, ptr noundef %3) unnamed_addr #10 {
  %.not = icmp eq ptr %3, null
  %5 = icmp eq i8 %1, 115
  br i1 %5, label %6, label %57

6:                                                ; preds = %4
  br i1 %.not, label %7, label %33

7:                                                ; preds = %6
  %8 = load ptr, ptr @_ZL12pkgDataFlags, align 8, !tbaa !45
  %9 = getelementptr inbounds nuw i8, ptr %8, i64 104
  %10 = load ptr, ptr %9, align 8, !tbaa !16
  %11 = tail call i64 @strlen(ptr noundef nonnull dereferenceable(1) %10) #25
  %12 = getelementptr inbounds nuw i8, ptr %8, i64 112
  %13 = load ptr, ptr %12, align 8, !tbaa !16
  %14 = tail call i64 @strlen(ptr noundef nonnull dereferenceable(1) %13) #25
  %15 = add i64 %14, %11
  %16 = tail call i64 @strlen(ptr noundef nonnull dereferenceable(1) %0) #25
  %17 = add i64 %15, %16
  %18 = tail call i64 @strlen(ptr noundef nonnull dereferenceable(1) getelementptr inbounds nuw (i8, ptr @_ZL12libFileNames, i64 512)) #25
  %19 = add i64 %17, %18
  %20 = tail call i64 @strlen(ptr noundef nonnull dereferenceable(1) %2) #25
  %21 = add i64 %19, %20
  %22 = getelementptr inbounds nuw i8, ptr %8, i64 120
  %23 = load ptr, ptr %22, align 8, !tbaa !16
  %24 = tail call i64 @strlen(ptr noundef nonnull dereferenceable(1) %23) #25
  %25 = add i64 %21, %24
  %26 = shl i64 %25, 32
  %sext37 = add i64 %26, 85899345920
  %27 = ashr exact i64 %sext37, 32
  %28 = tail call noalias ptr @uprv_malloc_77(i64 noundef %27) #22
  %29 = icmp eq ptr %28, null
  br i1 %29, label %30, label %33

30:                                               ; preds = %7
  %31 = load ptr, ptr @stderr, align 8, !tbaa !20
  %32 = tail call i64 @fwrite(ptr nonnull @.str.137, i64 39, i64 1, ptr %31) #26
  br label %125

33:                                               ; preds = %7, %6
  %.129 = phi ptr [ %3, %6 ], [ %28, %7 ]
  %.0 = phi i8 [ 0, %6 ], [ 1, %7 ]
  %34 = load ptr, ptr @_ZL12pkgDataFlags, align 8, !tbaa !45
  %35 = getelementptr inbounds nuw i8, ptr %34, i64 104
  %36 = load ptr, ptr %35, align 8, !tbaa !16
  %37 = getelementptr inbounds nuw i8, ptr %34, i64 112
  %38 = load ptr, ptr %37, align 8, !tbaa !16
  %39 = tail call i32 (ptr, ptr, ...) @sprintf(ptr noundef nonnull dereferenceable(1) %.129, ptr noundef nonnull dereferenceable(1) @.str.138, ptr noundef %36, ptr noundef %38, ptr noundef nonnull %0, ptr noundef nonnull getelementptr inbounds nuw (i8, ptr @_ZL12libFileNames, i64 512), ptr noundef nonnull %2) #21
  %40 = tail call i64 @strlen(ptr noundef nonnull dereferenceable(1) %.129) #25
  %41 = and i64 %40, 4294967295
  %42 = icmp eq i64 %41, 0
  br i1 %42, label %46, label %43

43:                                               ; preds = %33
  %44 = tail call i32 (ptr, ...) @printf(ptr noundef nonnull dereferenceable(1) @.str.109, ptr noundef nonnull %.129)
  %45 = tail call i32 @system(ptr noundef nonnull %.129)
  %.not.i = icmp eq i32 %45, 0
  br i1 %.not.i, label %46, label %_ZL10runCommandPKca.exit42

46:                                               ; preds = %33, %43
  %47 = load ptr, ptr @_ZL12pkgDataFlags, align 8, !tbaa !45
  %48 = getelementptr inbounds nuw i8, ptr %47, i64 120
  %49 = load ptr, ptr %48, align 8, !tbaa !16
  %50 = tail call i32 (ptr, ptr, ...) @sprintf(ptr noundef nonnull dereferenceable(1) %.129, ptr noundef nonnull dereferenceable(1) @.str.139, ptr noundef %49, ptr noundef nonnull %0, ptr noundef nonnull getelementptr inbounds nuw (i8, ptr @_ZL12libFileNames, i64 512)) #21
  %51 = tail call i64 @strlen(ptr noundef nonnull dereferenceable(1) %.129) #25
  %52 = and i64 %51, 4294967295
  %53 = icmp eq i64 %52, 0
  br i1 %53, label %_ZL10runCommandPKca.exit42.thread, label %54

54:                                               ; preds = %46
  %55 = tail call i32 (ptr, ...) @printf(ptr noundef nonnull dereferenceable(1) @.str.109, ptr noundef nonnull %.129)
  %56 = tail call i32 @system(ptr noundef nonnull %.129)
  %.not.i40 = icmp eq i32 %56, 0
  br i1 %.not.i40, label %_ZL10runCommandPKca.exit42.thread, label %_ZL10runCommandPKca.exit42

57:                                               ; preds = %4
  br i1 %.not, label %58, label %98

58:                                               ; preds = %57
  %59 = load ptr, ptr @_ZL12pkgDataFlags, align 8, !tbaa !45
  %60 = getelementptr inbounds nuw i8, ptr %59, i64 64
  %61 = load ptr, ptr %60, align 8, !tbaa !16
  %62 = tail call i64 @strlen(ptr noundef nonnull dereferenceable(1) %61) #25
  %63 = getelementptr inbounds nuw i8, ptr %59, i64 72
  %64 = load ptr, ptr %63, align 8, !tbaa !16
  %65 = tail call i64 @strlen(ptr noundef nonnull dereferenceable(1) %64) #25
  %66 = add i64 %65, %62
  %67 = tail call i64 @strlen(ptr noundef nonnull dereferenceable(1) %0) #25
  %68 = tail call i64 @strlen(ptr noundef nonnull dereferenceable(1) getelementptr inbounds nuw (i8, ptr @_ZL12libFileNames, i64 768)) #25
  %69 = add i64 %68, %67
  %70 = shl i64 %69, 1
  %71 = tail call i64 @strlen(ptr noundef nonnull dereferenceable(1) %2) #25
  %72 = getelementptr inbounds nuw i8, ptr %59, i64 80
  %73 = load ptr, ptr %72, align 8, !tbaa !16
  %74 = tail call i64 @strlen(ptr noundef nonnull dereferenceable(1) %73) #25
  %75 = load i8, ptr %73, align 1, !tbaa !22
  %76 = icmp eq i8 %75, 0
  %77 = select i1 %76, ptr @.str.11, ptr getelementptr inbounds nuw (i8, ptr @_ZL12libFileNames, i64 256)
  %78 = tail call i64 @strlen(ptr noundef nonnull dereferenceable(1) %77) #25
  %79 = getelementptr inbounds nuw i8, ptr %59, i64 88
  %80 = load ptr, ptr %79, align 8, !tbaa !16
  %81 = tail call i64 @strlen(ptr noundef nonnull dereferenceable(1) %80) #25
  %82 = getelementptr inbounds nuw i8, ptr %59, i64 96
  %83 = load ptr, ptr %82, align 8, !tbaa !16
  %84 = tail call i64 @strlen(ptr noundef nonnull dereferenceable(1) %83) #25
  %85 = add i64 %66, %71
  %86 = add i64 %85, %70
  %87 = add i64 %86, %74
  %88 = add i64 %87, %78
  %89 = add i64 %88, %81
  %90 = add i64 %89, %84
  %91 = shl i64 %90, 32
  %sext = add i64 %91, 85899345920
  %92 = ashr exact i64 %sext, 32
  %93 = tail call noalias ptr @uprv_malloc_77(i64 noundef %92) #22
  %94 = icmp eq ptr %93, null
  br i1 %94, label %95, label %98

95:                                               ; preds = %58
  %96 = load ptr, ptr @stderr, align 8, !tbaa !20
  %97 = tail call i64 @fwrite(ptr nonnull @.str.137, i64 39, i64 1, ptr %96) #26
  br label %125

98:                                               ; preds = %58, %57
  %.3 = phi ptr [ %3, %57 ], [ %93, %58 ]
  %.2 = phi i8 [ 0, %57 ], [ 1, %58 ]
  %99 = load ptr, ptr @_ZL12pkgDataFlags, align 8, !tbaa !45
  %100 = getelementptr inbounds nuw i8, ptr %99, i64 64
  %101 = load ptr, ptr %100, align 8, !tbaa !16
  %102 = getelementptr inbounds nuw i8, ptr %99, i64 72
  %103 = load ptr, ptr %102, align 8, !tbaa !16
  %104 = getelementptr inbounds nuw i8, ptr %99, i64 80
  %105 = load ptr, ptr %104, align 8, !tbaa !16
  %106 = load i8, ptr %105, align 1, !tbaa !22
  %107 = icmp eq i8 %106, 0
  %108 = select i1 %107, ptr @.str.11, ptr getelementptr inbounds nuw (i8, ptr @_ZL12libFileNames, i64 256)
  %109 = getelementptr inbounds nuw i8, ptr %99, i64 88
  %110 = load ptr, ptr %109, align 8, !tbaa !16
  %111 = getelementptr inbounds nuw i8, ptr %99, i64 96
  %112 = load ptr, ptr %111, align 8, !tbaa !16
  %113 = tail call i32 (ptr, ptr, ...) @sprintf(ptr noundef nonnull dereferenceable(1) %.3, ptr noundef nonnull dereferenceable(1) @.str.140, ptr noundef %101, ptr noundef %103, ptr noundef nonnull %0, ptr noundef nonnull getelementptr inbounds nuw (i8, ptr @_ZL12libFileNames, i64 768), ptr noundef nonnull %2, ptr noundef nonnull %105, ptr noundef nonnull %108, ptr noundef %110, ptr noundef %112) #21
  %114 = tail call i64 @strlen(ptr noundef nonnull dereferenceable(1) %.3) #25
  %115 = and i64 %114, 4294967295
  %116 = icmp eq i64 %115, 0
  br i1 %116, label %_ZL10runCommandPKca.exit42.thread, label %117

117:                                              ; preds = %98
  %118 = tail call i32 (ptr, ...) @printf(ptr noundef nonnull dereferenceable(1) @.str.109, ptr noundef nonnull %.3)
  %119 = tail call i32 @system(ptr noundef nonnull %.3)
  %.not.i43 = icmp eq i32 %119, 0
  br i1 %.not.i43, label %_ZL10runCommandPKca.exit42.thread, label %_ZL10runCommandPKca.exit42

_ZL10runCommandPKca.exit42:                       ; preds = %117, %54, %43
  %.sink54 = phi i32 [ %45, %43 ], [ %56, %54 ], [ %119, %117 ]
  %.230 = phi ptr [ %.129, %43 ], [ %.129, %54 ], [ %.3, %117 ]
  %.1 = phi i8 [ %.0, %43 ], [ %.0, %54 ], [ %.2, %117 ]
  %120 = load ptr, ptr @stderr, align 8, !tbaa !20
  %121 = tail call i32 (ptr, ptr, ...) @fprintf(ptr noundef %120, ptr noundef nonnull @.str.110, i32 noundef %.sink54) #24
  %122 = load ptr, ptr @stderr, align 8, !tbaa !20
  %123 = tail call i32 (ptr, ptr, ...) @fprintf(ptr noundef %122, ptr noundef nonnull @.str.141, ptr noundef nonnull %.230) #24
  br label %_ZL10runCommandPKca.exit42.thread

_ZL10runCommandPKca.exit42.thread:                ; preds = %117, %98, %54, %46, %_ZL10runCommandPKca.exit42
  %.153 = phi i8 [ %.1, %_ZL10runCommandPKca.exit42 ], [ %.2, %117 ], [ %.2, %98 ], [ %.0, %54 ], [ %.0, %46 ]
  %.23052 = phi ptr [ %.230, %_ZL10runCommandPKca.exit42 ], [ %.3, %117 ], [ %.3, %98 ], [ %.129, %54 ], [ %.129, %46 ]
  %.03151 = phi i32 [ 1, %_ZL10runCommandPKca.exit42 ], [ 0, %117 ], [ 0, %98 ], [ 0, %54 ], [ 0, %46 ]
  %.not39 = icmp eq i8 %.153, 0
  br i1 %.not39, label %125, label %124

124:                                              ; preds = %_ZL10runCommandPKca.exit42.thread
  tail call void @uprv_free_77(ptr noundef nonnull %.23052)
  br label %125

125:                                              ; preds = %_ZL10runCommandPKca.exit42.thread, %124, %95, %30
  %.032 = phi i32 [ -1, %30 ], [ -1, %95 ], [ %.03151, %124 ], [ %.03151, %_ZL10runCommandPKca.exit42.thread ]
  ret i32 %.032
}